; Function Attrs: null_pointer_is_valid sspstrong uwtable
define internal void @dis_iei_udh_si(ptr noundef %0, ptr noundef %1, ptr noundef %2, i32 noundef %3, i8 noundef zeroext %4, ptr readnone captures(none) %5) unnamed_addr #0 {
  %.not = icmp eq i8 %4, 1
  br i1 %.not, label %10, label %7

7:                                                ; preds = %6
  %8 = zext i8 %4 to i32
  %9 = tail call ptr @proto_tree_add_expert(ptr noundef %2, ptr noundef %1, ptr noundef nonnull @ei_gsm_sms_unexpected_data_length, ptr noundef %0, i32 noundef %3, i32 noundef %8)
  br label %13

10:                                               ; preds = %6
  %11 = load i32, ptr @hf_gsm_sms_udh_created, align 4
  %12 = tail call ptr @proto_tree_add_item(ptr noundef %2, i32 noundef %11, ptr noundef %0, i32 noundef %3, i32 noundef 1, i32 noundef 0)
  br label %13

13:                                               ; preds = %10, %7
  ret void
}